; ModuleID = '22/165.c'
source_filename = "22/165.c"
target datalayout = "e-m:e-p270:32:32-p271:32:32-p272:64:64-i64:64-f80:128-n8:16:32:64-S128"
target triple = "x86_64-pc-linux-gnu"

@.str = private unnamed_addr constant [3 x i8] c"%s\00", align 1
@.str.1 = private unnamed_addr constant [4 x i8] c"%d\0A\00", align 1
@.str.2 = private unnamed_addr constant [4 x i8] c"No\0A\00", align 1

; Function Attrs: noinline nounwind uwtable
define dso_local void @main() #0 {
  %1 = alloca [1201 x i8], align 16
  %2 = alloca [300 x i32], align 16
  %3 = alloca i32, align 4
  %4 = alloca i32, align 4
  %5 = alloca i32, align 4
  %6 = alloca i32, align 4
  %7 = alloca i32, align 4
  %8 = alloca i32, align 4
  %9 = bitcast [300 x i32]* %2 to i8*
  call void @llvm.memset.p0i8.i64(i8* align 16 %9, i8 0, i64 1200, i1 false)
  store i32 0, i32* %4, align 4
  store i32 0, i32* %8, align 4
  %10 = getelementptr inbounds [1201 x i8], [1201 x i8]* %1, i64 0, i64 0
  %11 = call i32 (i8*, ...) @__isoc99_scanf(i8* getelementptr inbounds ([3 x i8], [3 x i8]* @.str, i64 0, i64 0), i8* %10)
  store i32 0, i32* %3, align 4
  br label %12

12:                                               ; preds = %130, %0
  %13 = load i32, i32* %3, align 4
  %14 = sext i32 %13 to i64
  %15 = getelementptr inbounds [1201 x i8], [1201 x i8]* %1, i64 0, i64 %14
  %16 = load i8, i8* %15, align 1
  %17 = sext i8 %16 to i32
  %18 = icmp ne i32 %17, 0
  br i1 %18, label %19, label %133

19:                                               ; preds = %12
  %20 = load i32, i32* %3, align 4
  %21 = sext i32 %20 to i64
  %22 = getelementptr inbounds [1201 x i8], [1201 x i8]* %1, i64 0, i64 %21
  %23 = load i8, i8* %22, align 1
  %24 = sext i8 %23 to i32
  switch i32 %24, label %128 [
    i32 48, label %25
    i32 49, label %35
    i32 50, label %45
    i32 51, label %55
    i32 52, label %65
    i32 53, label %75
    i32 54, label %85
    i32 55, label %95
    i32 56, label %105
    i32 57, label %115
    i32 44, label %125
  ]

25:                                               ; preds = %19
  %26 = load i32, i32* %4, align 4
  %27 = sext i32 %26 to i64
  %28 = getelementptr inbounds [300 x i32], [300 x i32]* %2, i64 0, i64 %27
  %29 = load i32, i32* %28, align 4
  %30 = mul nsw i32 %29, 10
  %31 = add nsw i32 %30, 0
  %32 = load i32, i32* %4, align 4
  %33 = sext i32 %32 to i64
  %34 = getelementptr inbounds [300 x i32], [300 x i32]* %2, i64 0, i64 %33
  store i32 %31, i32* %34, align 4
  br label %129

35:                                               ; preds = %19
  %36 = load i32, i32* %4, align 4
  %37 = sext i32 %36 to i64
  %38 = getelementptr inbounds [300 x i32], [300 x i32]* %2, i64 0, i64 %37
  %39 = load i32, i32* %38, align 4
  %40 = mul nsw i32 %39, 10
  %41 = add nsw i32 %40, 1
  %42 = load i32, i32* %4, align 4
  %43 = sext i32 %42 to i64
  %44 = getelementptr inbounds [300 x i32], [300 x i32]* %2, i64 0, i64 %43
  store i32 %41, i32* %44, align 4
  br label %129

45:                                               ; preds = %19
  %46 = load i32, i32* %4, align 4
  %47 = sext i32 %46 to i64
  %48 = getelementptr inbounds [300 x i32], [300 x i32]* %2, i64 0, i64 %47
  %49 = load i32, i32* %48, align 4
  %50 = mul nsw i32 %49, 10
  %51 = add nsw i32 %50, 2
  %52 = load i32, i32* %4, align 4
  %53 = sext i32 %52 to i64
  %54 = getelementptr inbounds [300 x i32], [300 x i32]* %2, i64 0, i64 %53
  store i32 %51, i32* %54, align 4
  br label %129

55:                                               ; preds = %19
  %56 = load i32, i32* %4, align 4
  %57 = sext i32 %56 to i64
  %58 = getelementptr inbounds [300 x i32], [300 x i32]* %2, i64 0, i64 %57
  %59 = load i32, i32* %58, align 4
  %60 = mul nsw i32 %59, 10
  %61 = add nsw i32 %60, 3
  %62 = load i32, i32* %4, align 4
  %63 = sext i32 %62 to i64
  %64 = getelementptr inbounds [300 x i32], [300 x i32]* %2, i64 0, i64 %63
  store i32 %61, i32* %64, align 4
  br label %129

65:                                               ; preds = %19
  %66 = load i32, i32* %4, align 4
  %67 = sext i32 %66 to i64
  %68 = getelementptr inbounds [300 x i32], [300 x i32]* %2, i64 0, i64 %67
  %69 = load i32, i32* %68, align 4
  %70 = mul nsw i32 %69, 10
  %71 = add nsw i32 %70, 4
  %72 = load i32, i32* %4, align 4
  %73 = sext i32 %72 to i64
  %74 = getelementptr inbounds [300 x i32], [300 x i32]* %2, i64 0, i64 %73
  store i32 %71, i32* %74, align 4
  br label %129

75:                                               ; preds = %19
  %76 = load i32, i32* %4, align 4
  %77 = sext i32 %76 to i64
  %78 = getelementptr inbounds [300 x i32], [300 x i32]* %2, i64 0, i64 %77
  %79 = load i32, i32* %78, align 4
  %80 = mul nsw i32 %79, 10
  %81 = add nsw i32 %80, 5
  %82 = load i32, i32* %4, align 4
  %83 = sext i32 %82 to i64
  %84 = getelementptr inbounds [300 x i32], [300 x i32]* %2, i64 0, i64 %83
  store i32 %81, i32* %84, align 4
  br label %129

85:                                               ; preds = %19
  %86 = load i32, i32* %4, align 4
  %87 = sext i32 %86 to i64
  %88 = getelementptr inbounds [300 x i32], [300 x i32]* %2, i64 0, i64 %87
  %89 = load i32, i32* %88, align 4
  %90 = mul nsw i32 %89, 10
  %91 = add nsw i32 %90, 6
  %92 = load i32, i32* %4, align 4
  %93 = sext i32 %92 to i64
  %94 = getelementptr inbounds [300 x i32], [300 x i32]* %2, i64 0, i64 %93
  store i32 %91, i32* %94, align 4
  br label %129

95:                                               ; preds = %19
  %96 = load i32, i32* %4, align 4
  %97 = sext i32 %96 to i64
  %98 = getelementptr inbounds [300 x i32], [300 x i32]* %2, i64 0, i64 %97
  %99 = load i32, i32* %98, align 4
  %100 = mul nsw i32 %99, 10
  %101 = add nsw i32 %100, 7
  %102 = load i32, i32* %4, align 4
  %103 = sext i32 %102 to i64
  %104 = getelementptr inbounds [300 x i32], [300 x i32]* %2, i64 0, i64 %103
  store i32 %101, i32* %104, align 4
  br label %129

105:                                              ; preds = %19
  %106 = load i32, i32* %4, align 4
  %107 = sext i32 %106 to i64
  %108 = getelementptr inbounds [300 x i32], [300 x i32]* %2, i64 0, i64 %107
  %109 = load i32, i32* %108, align 4
  %110 = mul nsw i32 %109, 10
  %111 = add nsw i32 %110, 8
  %112 = load i32, i32* %4, align 4
  %113 = sext i32 %112 to i64
  %114 = getelementptr inbounds [300 x i32], [300 x i32]* %2, i64 0, i64 %113
  store i32 %111, i32* %114, align 4
  br label %129

115:                                              ; preds = %19
  %116 = load i32, i32* %4, align 4
  %117 = sext i32 %116 to i64
  %118 = getelementptr inbounds [300 x i32], [300 x i32]* %2, i64 0, i64 %117
  %119 = load i32, i32* %118, align 4
  %120 = mul nsw i32 %119, 10
  %121 = add nsw i32 %120, 9
  %122 = load i32, i32* %4, align 4
  %123 = sext i32 %122 to i64
  %124 = getelementptr inbounds [300 x i32], [300 x i32]* %2, i64 0, i64 %123
  store i32 %121, i32* %124, align 4
  br label %129

125:                                              ; preds = %19
  %126 = load i32, i32* %4, align 4
  %127 = add nsw i32 %126, 1
  store i32 %127, i32* %4, align 4
  br label %129

128:                                              ; preds = %19
  br label %129

129:                                              ; preds = %128, %125, %115, %105, %95, %85, %75, %65, %55, %45, %35, %25
  br label %130

130:                                              ; preds = %129
  %131 = load i32, i32* %3, align 4
  %132 = add nsw i32 %131, 1
  store i32 %132, i32* %3, align 4
  br label %12

133:                                              ; preds = %12
  store i32 0, i32* %3, align 4
  br label %134

134:                                              ; preds = %186, %133
  %135 = load i32, i32* %3, align 4
  %136 = load i32, i32* %4, align 4
  %137 = icmp sle i32 %135, %136
  br i1 %137, label %138, label %189

138:                                              ; preds = %134
  store i32 0, i32* %5, align 4
  store i32 0, i32* %7, align 4
  store i32 0, i32* %6, align 4
  br label %139

139:                                              ; preds = %173, %138
  %140 = load i32, i32* %6, align 4
  %141 = load i32, i32* %4, align 4
  %142 = icmp sle i32 %140, %141
  br i1 %142, label %143, label %176

143:                                              ; preds = %139
  %144 = load i32, i32* %3, align 4
  %145 = sext i32 %144 to i64
  %146 = getelementptr inbounds [300 x i32], [300 x i32]* %2, i64 0, i64 %145
  %147 = load i32, i32* %146, align 4
  %148 = load i32, i32* %6, align 4
  %149 = sext i32 %148 to i64
  %150 = getelementptr inbounds [300 x i32], [300 x i32]* %2, i64 0, i64 %149
  %151 = load i32, i32* %150, align 4
  %152 = icmp slt i32 %147, %151
  br i1 %152, label %153, label %172

153:                                              ; preds = %143
  %154 = load i32, i32* %6, align 4
  %155 = sext i32 %154 to i64
  %156 = getelementptr inbounds [300 x i32], [300 x i32]* %2, i64 0, i64 %155
  %157 = load i32, i32* %156, align 4
  %158 = load i32, i32* %7, align 4
  %159 = icmp ne i32 %157, %158
  br i1 %159, label %160, label %171

160:                                              ; preds = %153
  %161 = load i32, i32* %6, align 4
  %162 = sext i32 %161 to i64
  %163 = getelementptr inbounds [300 x i32], [300 x i32]* %2, i64 0, i64 %162
  %164 = load i32, i32* %163, align 4
  store i32 %164, i32* %7, align 4
  %165 = load i32, i32* %5, align 4
  %166 = add nsw i32 %165, 1
  store i32 %166, i32* %5, align 4
  %167 = load i32, i32* %5, align 4
  %168 = icmp eq i32 %167, 2
  br i1 %168, label %169, label %170

169:                                              ; preds = %160
  br label %176

170:                                              ; preds = %160
  br label %171

171:                                              ; preds = %170, %153
  br label %172

172:                                              ; preds = %171, %143
  br label %173

173:                                              ; preds = %172
  %174 = load i32, i32* %6, align 4
  %175 = add nsw i32 %174, 1
  store i32 %175, i32* %6, align 4
  br label %139

176:                                              ; preds = %169, %139
  %177 = load i32, i32* %5, align 4
  %178 = icmp eq i32 %177, 1
  br i1 %178, label %179, label %185

179:                                              ; preds = %176
  %180 = load i32, i32* %3, align 4
  %181 = sext i32 %180 to i64
  %182 = getelementptr inbounds [300 x i32], [300 x i32]* %2, i64 0, i64 %181
  %183 = load i32, i32* %182, align 4
  %184 = call i32 (i8*, ...) @printf(i8* getelementptr inbounds ([4 x i8], [4 x i8]* @.str.1, i64 0, i64 0), i32 %183)
  store i32 1, i32* %8, align 4
  br label %189

185:                                              ; preds = %176
  br label %186

186:                                              ; preds = %185
  %187 = load i32, i32* %3, align 4
  %188 = add nsw i32 %187, 1
  store i32 %188, i32* %3, align 4
  br label %134

189:                                              ; preds = %179, %134
  %190 = load i32, i32* %8, align 4
  %191 = icmp eq i32 %190, 0
  br i1 %191, label %192, label %194

192:                                              ; preds = %189
  %193 = call i32 (i8*, ...) @printf(i8* getelementptr inbounds ([4 x i8], [4 x i8]* @.str.2, i64 0, i64 0))
  br label %194

194:                                              ; preds = %192, %189
  ret void
}

; Function Attrs: argmemonly nounwind willreturn
declare void @llvm.memset.p0i8.i64(i8* nocapture writeonly, i8, i64, i1 immarg) #1

declare dso_local i32 @__isoc99_scanf(i8*, ...) #2

declare dso_local i32 @printf(i8*, ...) #2


!llvm.module.flags = !{!0}
!llvm.ident = !{!1}

!0 = !{i32 1, !"wchar_size", i32 4}
!1 = !{!"clang version 10.0.0-4ubuntu1 "}
